target datalayout = "e-m:e-p270:32:32-p271:32:32-p272:64:64-i64:64-i128:128-f80:128-n8:16:32:64-S128"
target triple = "x86_64-pc-linux-gnu"

%class.CacheProxyModel = type { %class.QIdentityProxyModel, %class.QStandardItemModel }
%class.QIdentityProxyModel = type { %class.QAbstractProxyModel }
%class.QAbstractProxyModel = type { %class.QAbstractItemModel }
%class.QAbstractItemModel = type { %class.QObject }
%class.QObject = type { ptr, %class.QScopedPointer }
%class.QScopedPointer = type { ptr }
%class.QStandardItemModel = type { %class.QAbstractItemModel }

; Function Attrs: mustprogress uwtable
define linkonce_odr noundef zeroext i1 @_ZNK15CacheProxyModel8hasModelEv(ptr noundef nonnull align 8 dereferenceable(32) %0) #0 comdat align 2 {
  %2 = alloca ptr, align 8
  store ptr %0, ptr %2, align 8
  %3 = load ptr, ptr %2, align 8
  %4 = call noundef ptr @_ZNK19QAbstractProxyModel11sourceModelEv(ptr noundef nonnull align 8 dereferenceable(16) %3)
  %5 = getelementptr inbounds %class.CacheProxyModel, ptr %3, i32 0, i32 1
  %6 = icmp ne ptr %4, %5
  ret i1 %6
}

; Function Attrs: mustprogress uwtable
define noundef i32 @_ZNK15CacheProxyModel8rowCountERK11QModelIndex(ptr noundef nonnull align 8 dereferenceable(32) %0, ptr noundef nonnull align 8 dereferenceable(24) %1) unnamed_addr #0 align 2 {
  %3 = alloca i32, align 4
  %4 = alloca ptr, align 8
  %5 = alloca ptr, align 8
  %6 = alloca i32, align 4
  store ptr %0, ptr %4, align 8
  store ptr %1, ptr %5, align 8
  %7 = load ptr, ptr %4, align 8
  %8 = call noundef zeroext i1 @_ZNK15CacheProxyModel8hasModelEv(ptr noundef nonnull align 8 dereferenceable(32) %7)
  br i1 %8, label %9, label %15

9:                                                ; preds = %2
  %10 = load ptr, ptr %5, align 8
  %11 = call noundef i32 @_ZNK19QIdentityProxyModel8rowCountERK11QModelIndex(ptr noundef nonnull align 8 dereferenceable(16) %7, ptr noundef nonnull align 8 dereferenceable(24) %10)
  store i32 %11, ptr %6, align 4
  %12 = getelementptr inbounds %class.CacheProxyModel, ptr %7, i32 0, i32 1
  %13 = load i32, ptr %6, align 4
  call void @_ZN18QStandardItemModel11setRowCountEi(ptr noundef nonnull align 8 dereferenceable(16) %12, i32 noundef %13)
  %14 = load i32, ptr %6, align 4
  store i32 %14, ptr %3, align 4
  br label %19

15:                                               ; preds = %2
  %16 = getelementptr inbounds %class.CacheProxyModel, ptr %7, i32 0, i32 1
  %17 = load ptr, ptr %5, align 8
  %18 = call noundef i32 @_ZNK18QStandardItemModel8rowCountERK11QModelIndex(ptr noundef nonnull align 8 dereferenceable(16) %16, ptr noundef nonnull align 8 dereferenceable(24) %17)
  store i32 %18, ptr %3, align 4
  br label %19

19:                                               ; preds = %15, %9
  %20 = load i32, ptr %3, align 4
  ret i32 %20
}