; Function Attrs: mustprogress uwtable
define noundef i32 @_ZNK15CacheProxyModel8rowCountERK11QModelIndex(ptr noundef nonnull align 8 dereferenceable(32) %0, ptr noundef nonnull align 8 dereferenceable(24) %1) unnamed_addr #0 align 2 {
  %3 = tail call noundef ptr @_ZNK19QAbstractProxyModel11sourceModelEv(ptr noundef nonnull align 8 dereferenceable(16) %0)
  %4 = getelementptr inbounds i8, ptr %0, i64 16
  %.not = icmp eq ptr %3, %4
  br i1 %.not, label %7, label %5

5:                                                ; preds = %2
  %6 = tail call noundef i32 @_ZNK19QIdentityProxyModel8rowCountERK11QModelIndex(ptr noundef nonnull align 8 dereferenceable(16) %0, ptr noundef nonnull align 8 dereferenceable(24) %1)
  tail call void @_ZN18QStandardItemModel11setRowCountEi(ptr noundef nonnull align 8 dereferenceable(16) %4, i32 noundef %6)
  br label %9

7:                                                ; preds = %2
  %8 = tail call noundef i32 @_ZNK18QStandardItemModel8rowCountERK11QModelIndex(ptr noundef nonnull align 8 dereferenceable(16) %3, ptr noundef nonnull align 8 dereferenceable(24) %1)
  br label %9

9:                                                ; preds = %7, %5
  %.0 = phi i32 [ %6, %5 ], [ %8, %7 ]
  ret i32 %.0
}